; Function Attrs: nounwind uwtable
define ptr @l_Lean_Meta_ppSimpTheorem___rarg(ptr noundef %0, ptr readnone captures(none) %1, ptr readnone captures(none) %2, ptr noundef %3) local_unnamed_addr #1 {
  %5 = getelementptr inbounds nuw i8, ptr %3, i64 49
  %6 = load i8, ptr %5, align 1, !tbaa !14
  %7 = getelementptr inbounds nuw i8, ptr %0, i64 16
  %8 = load ptr, ptr %7, align 8, !tbaa !9
  %9 = ptrtoint ptr %8 to i64
  %10 = and i64 %9, 1
  %.not = icmp eq i64 %10, 0
  br i1 %.not, label %11, label %lean_inc.exit28

11:                                               ; preds = %4
  %.val.i = load i32, ptr %8, align 4, !tbaa !4
  %12 = icmp sgt i32 %.val.i, 0
  br i1 %12, label %13, label %15, !prof !11

13:                                               ; preds = %11
  %14 = add nuw i32 %.val.i, 1
  store i32 %14, ptr %8, align 4, !tbaa !4
  br label %lean_inc.exit28

15:                                               ; preds = %11
  %.not.i = icmp eq i32 %.val.i, 0
  br i1 %.not.i, label %lean_inc.exit28, label %16

16:                                               ; preds = %15
  tail call void @lean_inc_ref_cold(ptr noundef nonnull %8) #6
  br label %lean_inc.exit28

lean_inc.exit28:                                  ; preds = %16, %15, %13, %4
  %17 = getelementptr inbounds nuw i8, ptr %3, i64 40
  %18 = load ptr, ptr %17, align 8, !tbaa !9
  %19 = ptrtoint ptr %18 to i64
  %20 = and i64 %19, 1
  %.not36 = icmp eq i64 %20, 0
  br i1 %.not36, label %21, label %lean_inc.exit27

21:                                               ; preds = %lean_inc.exit28
  %.val.i29 = load i32, ptr %18, align 4, !tbaa !4
  %22 = icmp sgt i32 %.val.i29, 0
  br i1 %22, label %23, label %25, !prof !11

23:                                               ; preds = %21
  %24 = add nuw i32 %.val.i29, 1
  store i32 %24, ptr %18, align 4, !tbaa !4
  br label %lean_inc.exit27

25:                                               ; preds = %21
  %.not.i30 = icmp eq i32 %.val.i29, 0
  br i1 %.not.i30, label %lean_inc.exit27, label %26

26:                                               ; preds = %25
  tail call void @lean_inc_ref_cold(ptr noundef nonnull %18) #6
  br label %lean_inc.exit27

lean_inc.exit27:                                  ; preds = %26, %25, %23, %lean_inc.exit28
  %27 = ptrtoint ptr %0 to i64
  %28 = and i64 %27, 1
  %.not37 = icmp eq i64 %28, 0
  br i1 %.not37, label %29, label %lean_inc.exit

29:                                               ; preds = %lean_inc.exit27
  %.val.i32 = load i32, ptr %0, align 4, !tbaa !4
  %30 = icmp sgt i32 %.val.i32, 0
  br i1 %30, label %31, label %33, !prof !11

31:                                               ; preds = %29
  %32 = add nuw i32 %.val.i32, 1
  store i32 %32, ptr %0, align 4, !tbaa !4
  br label %lean_inc.exit

33:                                               ; preds = %29
  %.not.i33 = icmp eq i32 %.val.i32, 0
  br i1 %.not.i33, label %lean_inc.exit, label %34

34:                                               ; preds = %33
  tail call void @lean_inc_ref_cold(ptr noundef nonnull %0) #6
  br label %lean_inc.exit

lean_inc.exit:                                    ; preds = %34, %33, %31, %lean_inc.exit27
  %35 = tail call ptr @l_Lean_Meta_ppOrigin___rarg(ptr noundef nonnull %0, ptr poison, ptr poison, ptr noundef %18)
  %36 = icmp eq i8 %6, 0
  tail call void @lean_inc_heartbeat() #6
  %37 = tail call noalias ptr @mi_malloc_small(i64 noundef 40) #6
  %38 = icmp eq ptr %37, null
  br i1 %36, label %39, label %41

39:                                               ; preds = %lean_inc.exit
  br i1 %38, label %40, label %lean_alloc_closure.exit

40:                                               ; preds = %39
  tail call void @lean_internal_panic_out_of_memory() #7
  unreachable

41:                                               ; preds = %lean_inc.exit
  br i1 %38, label %42, label %lean_alloc_closure.exit

42:                                               ; preds = %41
  tail call void @lean_internal_panic_out_of_memory() #7
  unreachable

lean_alloc_closure.exit:                          ; preds = %41, %39
  %l_Lean_Meta_ppSimpTheorem___rarg___lambda__2.sink = phi ptr [ @l_Lean_Meta_ppSimpTheorem___rarg___lambda__1, %39 ], [ @l_Lean_Meta_ppSimpTheorem___rarg___lambda__2, %41 ]
  %43 = getelementptr inbounds nuw i8, ptr %37, i64 4
  store i32 1, ptr %37, align 4, !tbaa !4
  store i32 -184549336, ptr %43, align 4
  %44 = getelementptr inbounds nuw i8, ptr %37, i64 8
  store ptr %l_Lean_Meta_ppSimpTheorem___rarg___lambda__2.sink, ptr %44, align 8, !tbaa !9
  %45 = getelementptr inbounds nuw i8, ptr %37, i64 16
  store i16 3, ptr %45, align 8, !tbaa !16
  %46 = getelementptr inbounds nuw i8, ptr %37, i64 18
  store i16 2, ptr %46, align 2, !tbaa !16
  %47 = getelementptr inbounds nuw i8, ptr %37, i64 24
  store ptr %3, ptr %47, align 8, !tbaa !9
  %48 = getelementptr inbounds nuw i8, ptr %37, i64 32
  store ptr %0, ptr %48, align 8, !tbaa !9
  %49 = tail call ptr @lean_apply_4(ptr noundef %8, ptr noundef nonnull inttoptr (i64 1 to ptr), ptr noundef nonnull inttoptr (i64 1 to ptr), ptr noundef %35, ptr noundef nonnull %37) #6
  ret ptr %49
}